target datalayout = "e-m:e-p270:32:32-p271:32:32-p272:64:64-i64:64-i128:128-f80:128-n8:16:32:64-S128"
target triple = "x86_64-pc-linux-gnu"

%"class.cv::Mat" = type { i32, i32, i32, i32, ptr, ptr, ptr, ptr, ptr, ptr, %"struct.cv::MatSize", %"struct.cv::MatStep" }
%"struct.cv::MatSize" = type { ptr }
%"struct.cv::MatStep" = type { ptr, [2 x i64] }

; Function Attrs: inlinehint mustprogress nounwind uwtable
define linkonce_odr hidden noundef nonnull align 4 dereferenceable(4) ptr @_ZN2cv3Mat2atIfEERT_ii(ptr noundef nonnull align 8 dereferenceable(96) %0, i32 noundef %1, i32 noundef %2) #6 comdat align 2 {
  %4 = alloca ptr, align 8
  %5 = alloca i32, align 4
  %6 = alloca i32, align 4
  store ptr %0, ptr %4, align 8, !tbaa !3
  store i32 %1, ptr %5, align 4, !tbaa !8
  store i32 %2, ptr %6, align 4, !tbaa !8
  %7 = load ptr, ptr %4, align 8
  %8 = getelementptr inbounds nuw %"class.cv::Mat", ptr %7, i32 0, i32 4
  %9 = load ptr, ptr %8, align 8, !tbaa !25
  %10 = getelementptr inbounds nuw %"class.cv::Mat", ptr %7, i32 0, i32 11
  %11 = getelementptr inbounds nuw %"struct.cv::MatStep", ptr %10, i32 0, i32 0
  %12 = load ptr, ptr %11, align 8, !tbaa !26
  %13 = getelementptr inbounds i64, ptr %12, i64 0
  %14 = load i64, ptr %13, align 8, !tbaa !27
  %15 = load i32, ptr %5, align 4, !tbaa !8
  %16 = sext i32 %15 to i64
  %17 = mul i64 %14, %16
  %18 = getelementptr inbounds nuw i8, ptr %9, i64 %17
  %19 = load i32, ptr %6, align 4, !tbaa !8
  %20 = sext i32 %19 to i64
  %21 = getelementptr inbounds float, ptr %18, i64 %20
  ret ptr %21
}

; Function Attrs: inlinehint mustprogress nounwind uwtable
define linkonce_odr hidden noundef i32 @_ZN2cv5modulEii(i32 noundef %0, i32 noundef %1) #6 comdat {
  %3 = alloca i32, align 4
  %4 = alloca i32, align 4
  store i32 %0, ptr %3, align 4, !tbaa !8
  store i32 %1, ptr %4, align 4, !tbaa !8
  %5 = load i32, ptr %3, align 4, !tbaa !8
  %6 = load i32, ptr %4, align 4, !tbaa !8
  %7 = srem i32 %5, %6
  %8 = load i32, ptr %4, align 4, !tbaa !8
  %9 = add nsw i32 %7, %8
  %10 = load i32, ptr %4, align 4, !tbaa !8
  %11 = srem i32 %9, %10
  ret i32 %11
}

; Function Attrs: mustprogress uwtable
define hidden void @_ZN2cv9circshiftENS_3MatEii(ptr dead_on_unwind noalias writable sret(%"class.cv::Mat") align 8 %0, ptr noundef %1, i32 noundef %2, i32 noundef %3) #4 personality ptr @__gxx_personality_v0 {
  %5 = alloca ptr, align 8
  %6 = alloca ptr, align 8
  %7 = alloca i32, align 4
  %8 = alloca i32, align 4
  %9 = alloca i1, align 1
  %10 = alloca i32, align 4
  %11 = alloca i32, align 4
  %12 = alloca i32, align 4
  %13 = alloca i32, align 4
  %14 = alloca i32, align 4
  %15 = alloca ptr, align 8
  %16 = alloca i32, align 4
  store ptr %0, ptr %5, align 8
  store ptr %1, ptr %6, align 8, !tbaa !3
  store i32 %2, ptr %7, align 4, !tbaa !8
  store i32 %3, ptr %8, align 4, !tbaa !8
  store i1 false, ptr %9, align 1
  call void @_ZNK2cv3Mat5cloneEv(ptr dead_on_unwind writable sret(%"class.cv::Mat") align 8 %0, ptr noundef nonnull align 8 dereferenceable(96) %1)
  call void @llvm.lifetime.start.p0(i64 4, ptr %10) #3
  store i32 0, ptr %10, align 4, !tbaa !8
  call void @llvm.lifetime.start.p0(i64 4, ptr %11) #3
  store i32 0, ptr %11, align 4, !tbaa !8
  call void @llvm.lifetime.start.p0(i64 4, ptr %12) #3
  store i32 0, ptr %12, align 4, !tbaa !8
  br label %17

17:                                               ; preds = %64, %4
  %18 = load i32, ptr %12, align 4, !tbaa !8
  %19 = getelementptr inbounds nuw %"class.cv::Mat", ptr %1, i32 0, i32 2
  %20 = load i32, ptr %19, align 8, !tbaa !10
  %21 = icmp slt i32 %18, %20
  br i1 %21, label %23, label %22

22:                                               ; preds = %17
  store i32 2, ptr %13, align 4
  call void @llvm.lifetime.end.p0(i64 4, ptr %12) #3
  br label %67

23:                                               ; preds = %17
  call void @llvm.lifetime.start.p0(i64 4, ptr %14) #3
  store i32 0, ptr %14, align 4, !tbaa !8
  br label %24

24:                                               ; preds = %56, %23
  %25 = load i32, ptr %14, align 4, !tbaa !8
  %26 = getelementptr inbounds nuw %"class.cv::Mat", ptr %1, i32 0, i32 3
  %27 = load i32, ptr %26, align 4, !tbaa !19
  %28 = icmp slt i32 %25, %27
  br i1 %28, label %30, label %29

29:                                               ; preds = %24
  store i32 5, ptr %13, align 4
  call void @llvm.lifetime.end.p0(i64 4, ptr %14) #3
  br label %63

30:                                               ; preds = %24
  %31 = load i32, ptr %12, align 4, !tbaa !8
  %32 = load i32, ptr %8, align 4, !tbaa !8
  %33 = add nsw i32 %31, %32
  %34 = add nsw i32 %33, 1
  %35 = getelementptr inbounds nuw %"class.cv::Mat", ptr %1, i32 0, i32 2
  %36 = load i32, ptr %35, align 8, !tbaa !10
  %37 = invoke noundef i32 @_ZN2cv5modulEii(i32 noundef %34, i32 noundef %36)
          to label %38 unwind label %59

38:                                               ; preds = %30
  store i32 %37, ptr %10, align 4, !tbaa !8
  %39 = load i32, ptr %14, align 4, !tbaa !8
  %40 = load i32, ptr %7, align 4, !tbaa !8
  %41 = add nsw i32 %39, %40
  %42 = add nsw i32 %41, 1
  %43 = getelementptr inbounds nuw %"class.cv::Mat", ptr %1, i32 0, i32 3
  %44 = load i32, ptr %43, align 4, !tbaa !19
  %45 = invoke noundef i32 @_ZN2cv5modulEii(i32 noundef %42, i32 noundef %44)
          to label %46 unwind label %59

46:                                               ; preds = %38
  store i32 %45, ptr %11, align 4, !tbaa !8
  %47 = load i32, ptr %12, align 4, !tbaa !8
  %48 = load i32, ptr %14, align 4, !tbaa !8
  %49 = invoke noundef nonnull align 4 dereferenceable(4) ptr @_ZN2cv3Mat2atIfEERT_ii(ptr noundef nonnull align 8 dereferenceable(96) %1, i32 noundef %47, i32 noundef %48)
          to label %50 unwind label %59

50:                                               ; preds = %46
  %51 = load float, ptr %49, align 4, !tbaa !20
  %52 = load i32, ptr %10, align 4, !tbaa !8
  %53 = load i32, ptr %11, align 4, !tbaa !8
  %54 = invoke noundef nonnull align 4 dereferenceable(4) ptr @_ZN2cv3Mat2atIfEERT_ii(ptr noundef nonnull align 8 dereferenceable(96) %0, i32 noundef %52, i32 noundef %53)
          to label %55 unwind label %59

55:                                               ; preds = %50
  store float %51, ptr %54, align 4, !tbaa !20
  br label %56

56:                                               ; preds = %55
  %57 = load i32, ptr %14, align 4, !tbaa !8
  %58 = add nsw i32 %57, 1
  store i32 %58, ptr %14, align 4, !tbaa !8
  br label %24, !llvm.loop !22

59:                                               ; preds = %50, %46, %38, %30
  %60 = landingpad { ptr, i32 }
          cleanup
  %61 = extractvalue { ptr, i32 } %60, 0
  store ptr %61, ptr %15, align 8
  %62 = extractvalue { ptr, i32 } %60, 1
  store i32 %62, ptr %16, align 4
  call void @llvm.lifetime.end.p0(i64 4, ptr %14) #3
  call void @llvm.lifetime.end.p0(i64 4, ptr %12) #3
  call void @llvm.lifetime.end.p0(i64 4, ptr %11) #3
  call void @llvm.lifetime.end.p0(i64 4, ptr %10) #3
  call void @_ZN2cv3MatD1Ev(ptr noundef nonnull align 8 dereferenceable(96) %0) #3
  br label %71

63:                                               ; preds = %29
  br label %64

64:                                               ; preds = %63
  %65 = load i32, ptr %12, align 4, !tbaa !8
  %66 = add nsw i32 %65, 1
  store i32 %66, ptr %12, align 4, !tbaa !8
  br label %17, !llvm.loop !24

67:                                               ; preds = %22
  store i1 true, ptr %9, align 1
  store i32 1, ptr %13, align 4
  call void @llvm.lifetime.end.p0(i64 4, ptr %11) #3
  call void @llvm.lifetime.end.p0(i64 4, ptr %10) #3
  %68 = load i1, ptr %9, align 1
  br i1 %68, label %70, label %69

69:                                               ; preds = %67
  call void @_ZN2cv3MatD1Ev(ptr noundef nonnull align 8 dereferenceable(96) %0) #3
  br label %70

70:                                               ; preds = %69, %67
  ret void

71:                                               ; preds = %59
  %72 = load ptr, ptr %15, align 8
  %73 = load i32, ptr %16, align 4
  %74 = insertvalue { ptr, i32 } poison, ptr %72, 0
  %75 = insertvalue { ptr, i32 } %74, i32 %73, 1
  resume { ptr, i32 } %75
}