; Function Attrs: mustprogress uwtable
define hidden void @_ZN2cv9circshiftENS_3MatEii(ptr dead_on_unwind noalias writable sret(%"class.cv::Mat") align 8 %0, ptr noundef nonnull %1, i32 noundef %2, i32 noundef %3) local_unnamed_addr #3 personality ptr @__gxx_personality_v0 {
  tail call void @_ZNK2cv3Mat5cloneEv(ptr dead_on_unwind writable sret(%"class.cv::Mat") align 8 %0, ptr noundef nonnull align 8 dereferenceable(96) %1)
  %5 = getelementptr inbounds nuw i8, ptr %1, i64 8
  %6 = load i32, ptr %5, align 8, !tbaa !3
  %7 = icmp sgt i32 %6, 0
  br i1 %7, label %.preheader.lr.ph, label %._crit_edge15

.preheader.lr.ph:                                 ; preds = %4
  %8 = getelementptr inbounds nuw i8, ptr %1, i64 12
  %9 = load i32, ptr %8, align 4, !tbaa !16
  %10 = icmp sgt i32 %9, 0
  %11 = add i32 %3, 1
  %12 = add i32 %2, 1
  %13 = getelementptr inbounds nuw i8, ptr %0, i64 16
  %14 = load ptr, ptr %13, align 8
  br i1 %10, label %.preheader.lr.ph.split.us, label %._crit_edge15

.preheader.lr.ph.split.us:                        ; preds = %.preheader.lr.ph
  %15 = getelementptr inbounds nuw i8, ptr %0, i64 72
  %16 = load ptr, ptr %15, align 8
  %17 = getelementptr inbounds nuw i8, ptr %1, i64 72
  %18 = getelementptr inbounds nuw i8, ptr %1, i64 16
  %19 = load ptr, ptr %18, align 8, !tbaa !17
  %20 = load ptr, ptr %17, align 8, !tbaa !18
  %21 = load i64, ptr %20, align 8, !tbaa !19
  %22 = load i64, ptr %16, align 8, !tbaa !19
  %wide.trip.count21 = zext nneg i32 %6 to i64
  %wide.trip.count = zext nneg i32 %9 to i64
  br label %.preheader.us

.preheader.us:                                    ; preds = %._crit_edge.us, %.preheader.lr.ph.split.us
  %indvars.iv18 = phi i64 [ %indvars.iv.next19, %._crit_edge.us ], [ 0, %.preheader.lr.ph.split.us ]
  %23 = trunc nuw nsw i64 %indvars.iv18 to i32
  %24 = add i32 %11, %23
  %25 = srem i32 %24, %6
  %26 = add nsw i32 %25, %6
  %27 = srem i32 %26, %6
  %28 = mul i64 %21, %indvars.iv18
  %29 = getelementptr inbounds nuw i8, ptr %19, i64 %28
  %30 = sext i32 %27 to i64
  %31 = mul i64 %22, %30
  %32 = getelementptr inbounds nuw i8, ptr %14, i64 %31
  br label %33

33:                                               ; preds = %.preheader.us, %33
  %indvars.iv = phi i64 [ 0, %.preheader.us ], [ %indvars.iv.next, %33 ]
  %34 = trunc nuw nsw i64 %indvars.iv to i32
  %35 = add i32 %12, %34
  %36 = srem i32 %35, %9
  %37 = add nsw i32 %36, %9
  %38 = srem i32 %37, %9
  %39 = getelementptr inbounds nuw float, ptr %29, i64 %indvars.iv
  %40 = load float, ptr %39, align 4, !tbaa !21
  %41 = sext i32 %38 to i64
  %42 = getelementptr inbounds float, ptr %32, i64 %41
  store float %40, ptr %42, align 4, !tbaa !21
  %indvars.iv.next = add nuw nsw i64 %indvars.iv, 1
  %exitcond.not = icmp eq i64 %indvars.iv.next, %wide.trip.count
  br i1 %exitcond.not, label %._crit_edge.us, label %33, !llvm.loop !23

._crit_edge.us:                                   ; preds = %33
  %indvars.iv.next19 = add nuw nsw i64 %indvars.iv18, 1
  %exitcond22.not = icmp eq i64 %indvars.iv.next19, %wide.trip.count21
  br i1 %exitcond22.not, label %._crit_edge15, label %.preheader.us, !llvm.loop !25

._crit_edge15:                                    ; preds = %._crit_edge.us, %.preheader.lr.ph, %4
  ret void
}